target datalayout = "e-m:e-p270:32:32-p271:32:32-p272:64:64-i64:64-i128:128-f80:128-n8:16:32:64-S128"
target triple = "x86_64-pc-linux-gnu"

@lexbor_conv_dec_to_hex.map_str = internal constant [17 x i8] c"0123456789abcdef\00", align 16

; Function Attrs: nounwind uwtable
define hidden i64 @lexbor_conv_dec_to_hex(i32 noundef %0, ptr noundef %1, i64 noundef %2) #0 {
  %4 = alloca i64, align 8
  %5 = alloca i32, align 4
  %6 = alloca ptr, align 8
  %7 = alloca i64, align 8
  %8 = alloca i8, align 1
  %9 = alloca i64, align 8
  %10 = alloca i32, align 4
  %11 = alloca i32, align 4
  store i32 %0, ptr %5, align 4, !tbaa !16
  store ptr %1, ptr %6, align 8, !tbaa !8
  store i64 %2, ptr %7, align 8, !tbaa !11
  call void @llvm.lifetime.start.p0(i64 1, ptr %8) #3
  call void @llvm.lifetime.start.p0(i64 8, ptr %9) #3
  call void @llvm.lifetime.start.p0(i64 4, ptr %10) #3
  %12 = load i32, ptr %5, align 4, !tbaa !16
  %13 = icmp ne i32 %12, 0
  br i1 %13, label %14, label %25

14:                                               ; preds = %3
  %15 = load i32, ptr %5, align 4, !tbaa !16
  store i32 %15, ptr %10, align 4, !tbaa !16
  store i64 0, ptr %9, align 8, !tbaa !11
  br label %16

16:                                               ; preds = %19, %14
  %17 = load i32, ptr %10, align 4, !tbaa !16
  %18 = icmp ne i32 %17, 0
  br i1 %18, label %19, label %24

19:                                               ; preds = %16
  %20 = load i64, ptr %9, align 8, !tbaa !11
  %21 = add i64 %20, 1
  store i64 %21, ptr %9, align 8, !tbaa !11
  %22 = load i32, ptr %10, align 4, !tbaa !16
  %23 = udiv i32 %22, 16
  store i32 %23, ptr %10, align 4, !tbaa !16
  br label %16

24:                                               ; preds = %16
  br label %32

25:                                               ; preds = %3
  %26 = load i64, ptr %7, align 8, !tbaa !11
  %27 = icmp ugt i64 %26, 0
  br i1 %27, label %28, label %31

28:                                               ; preds = %25
  %29 = load ptr, ptr %6, align 8, !tbaa !8
  %30 = getelementptr inbounds i8, ptr %29, i64 0
  store i8 48, ptr %30, align 1, !tbaa !13
  store i64 1, ptr %4, align 8
  store i32 1, ptr %11, align 4
  br label %54

31:                                               ; preds = %25
  store i64 0, ptr %4, align 8
  store i32 1, ptr %11, align 4
  br label %54

32:                                               ; preds = %24
  %33 = load i64, ptr %9, align 8, !tbaa !11
  %34 = sub i64 %33, 1
  store i64 %34, ptr %7, align 8, !tbaa !11
  br label %35

35:                                               ; preds = %38, %32
  %36 = load i32, ptr %5, align 4, !tbaa !16
  %37 = icmp ne i32 %36, 0
  br i1 %37, label %38, label %52

38:                                               ; preds = %35
  %39 = load i32, ptr %5, align 4, !tbaa !16
  %40 = urem i32 %39, 16
  %41 = trunc i32 %40 to i8
  store i8 %41, ptr %8, align 1, !tbaa !13
  %42 = load i32, ptr %5, align 4, !tbaa !16
  %43 = udiv i32 %42, 16
  store i32 %43, ptr %5, align 4, !tbaa !16
  %44 = load i8, ptr %8, align 1, !tbaa !13
  %45 = zext i8 %44 to i64
  %46 = getelementptr inbounds nuw [17 x i8], ptr @lexbor_conv_dec_to_hex.map_str, i64 0, i64 %45
  %47 = load i8, ptr %46, align 1, !tbaa !13
  %48 = load ptr, ptr %6, align 8, !tbaa !8
  %49 = load i64, ptr %7, align 8, !tbaa !11
  %50 = add i64 %49, -1
  store i64 %50, ptr %7, align 8, !tbaa !11
  %51 = getelementptr inbounds nuw i8, ptr %48, i64 %49
  store i8 %47, ptr %51, align 1, !tbaa !13
  br label %35

52:                                               ; preds = %35
  %53 = load i64, ptr %9, align 8, !tbaa !11
  store i64 %53, ptr %4, align 8
  store i32 1, ptr %11, align 4
  br label %54

54:                                               ; preds = %52, %31, %28
  call void @llvm.lifetime.end.p0(i64 4, ptr %10) #3
  call void @llvm.lifetime.end.p0(i64 8, ptr %9) #3
  call void @llvm.lifetime.end.p0(i64 1, ptr %8) #3
  %55 = load i64, ptr %4, align 8
  ret i64 %55
}