; Function Attrs: nofree norecurse nosync nounwind memory(argmem: write) uwtable
define hidden i64 @lexbor_conv_dec_to_hex(i32 noundef %0, ptr noundef writeonly captures(none) %1, i64 noundef %2) local_unnamed_addr #2 {
  %.not = icmp eq i32 %0, 0
  br i1 %.not, label %6, label %.preheader23

.preheader23:                                     ; preds = %3, %.preheader23
  %.025 = phi i32 [ %5, %.preheader23 ], [ %0, %3 ]
  %.01524 = phi i64 [ %4, %.preheader23 ], [ 0, %3 ]
  %4 = add nuw nsw i64 %.01524, 1
  %5 = lshr i32 %.025, 4
  %.not21 = icmp ult i32 %.025, 16
  br i1 %.not21, label %.preheader, label %.preheader23

6:                                                ; preds = %3
  %.not20 = icmp eq i64 %2, 0
  br i1 %.not20, label %.loopexit, label %7

7:                                                ; preds = %6
  store i8 48, ptr %1, align 1, !tbaa !4
  br label %.loopexit

.preheader:                                       ; preds = %.preheader23, %.preheader
  %.017.in27 = phi i64 [ %.017, %.preheader ], [ %4, %.preheader23 ]
  %.01826 = phi i32 [ %10, %.preheader ], [ %0, %.preheader23 ]
  %.017 = add nsw i64 %.017.in27, -1
  %8 = and i32 %.01826, 15
  %9 = zext nneg i32 %8 to i64
  %10 = lshr i32 %.01826, 4
  %11 = getelementptr inbounds nuw [17 x i8], ptr @lexbor_conv_dec_to_hex.map_str, i64 0, i64 %9
  %12 = load i8, ptr %11, align 1, !tbaa !4
  %13 = getelementptr inbounds nuw i8, ptr %1, i64 %.017
  store i8 %12, ptr %13, align 1, !tbaa !4
  %.not22 = icmp ult i32 %.01826, 16
  br i1 %.not22, label %.loopexit, label %.preheader

.loopexit:                                        ; preds = %.preheader, %6, %7
  %.016 = phi i64 [ 1, %7 ], [ 0, %6 ], [ %4, %.preheader ]
  ret i64 %.016
}